target datalayout = "e-m:e-p270:32:32-p271:32:32-p272:64:64-i64:64-i128:128-f80:128-n8:16:32:64-S128"
target triple = "x86_64-pc-linux-gnu"

%struct._GtkDarktableGradientSlider = type { %struct._GtkDrawingArea, ptr, i32, i32, i32, [10 x double], [10 x double], [10 x i32], double, double, [3 x double], i32, i32, i32, i32, i32, i32, i32, i32, i32, ptr }
%struct._GtkDrawingArea = type { %struct._GtkWidget, ptr }
%struct._GtkWidget = type { %struct._GObject, ptr }
%struct._GObject = type { %struct._GTypeInstance, i32, ptr }
%struct._GTypeInstance = type { ptr }
%struct._GTypeClass = type { i64 }
%struct._GtkBorder = type { i16, i16, i16, i16 }

@_gradient_slider_get_type.static_g_define_type_id = internal global i64 0, align 8
@__func__._gradient_slider_get_preferred_width = private unnamed_addr constant [37 x i8] c"_gradient_slider_get_preferred_width\00", align 1
@.str.9 = private unnamed_addr constant [33 x i8] c"DTGTK_IS_GRADIENT_SLIDER(widget)\00", align 1
@.str.10 = private unnamed_addr constant [10 x i8] c"min-width\00", align 1

; Function Attrs: nounwind uwtable
define i64 @_gradient_slider_get_type() #0 {
  %1 = alloca i32, align 4
  %2 = alloca i64, align 8
  %3 = alloca ptr, align 8
  %4 = alloca i64, align 8
  %5 = alloca i64, align 8
  call void @llvm.lifetime.start.p0(i64 8, ptr %2) #11
  call void @llvm.lifetime.start.p0(i64 8, ptr %3) #11
  store ptr @_gradient_slider_get_type.static_g_define_type_id, ptr %3, align 8, !tbaa !6
  %6 = load ptr, ptr %3, align 8, !tbaa !6
  %7 = load atomic i64, ptr %6 seq_cst, align 8
  store i64 %7, ptr %2, align 8
  %8 = load i64, ptr %2, align 8, !tbaa !11
  store i64 %8, ptr %4, align 8, !tbaa !11
  call void @llvm.lifetime.end.p0(i64 8, ptr %3) #11
  call void @llvm.lifetime.end.p0(i64 8, ptr %2) #11
  %9 = load i64, ptr %4, align 8, !tbaa !11
  %10 = icmp ne i64 %9, 0
  br i1 %10, label %14, label %11

11:                                               ; preds = %0
  %12 = call i32 @g_once_init_enter(ptr noundef @_gradient_slider_get_type.static_g_define_type_id)
  %13 = icmp ne i32 %12, 0
  br label %14

14:                                               ; preds = %11, %0
  %15 = phi i1 [ false, %0 ], [ %13, %11 ]
  %16 = zext i1 %15 to i32
  store i32 %16, ptr %1, align 4, !tbaa !13
  %17 = load i32, ptr %1, align 4, !tbaa !13
  %18 = icmp ne i32 %17, 0
  br i1 %18, label %19, label %22

19:                                               ; preds = %14
  call void @llvm.lifetime.start.p0(i64 8, ptr %5) #11
  %20 = call i64 @_gradient_slider_get_type_once()
  store i64 %20, ptr %5, align 8, !tbaa !11
  %21 = load i64, ptr %5, align 8, !tbaa !11
  call void @g_once_init_leave(ptr noundef @_gradient_slider_get_type.static_g_define_type_id, i64 noundef %21)
  call void @llvm.lifetime.end.p0(i64 8, ptr %5) #11
  br label %22

22:                                               ; preds = %19, %14
  %23 = load i64, ptr @_gradient_slider_get_type.static_g_define_type_id, align 8, !tbaa !11
  ret i64 %23
}

; Function Attrs: nounwind uwtable
define i64 @dtgtk_gradient_slider_get_type() #0 {
  %1 = call i64 @_gradient_slider_get_type()
  ret i64 %1
}

; Function Attrs: inlinehint nounwind uwtable
define internal ptr @DTGTK_GRADIENT_SLIDER(ptr noundef %0) #8 {
  %2 = alloca ptr, align 8
  store ptr %0, ptr %2, align 8, !tbaa !15
  %3 = load ptr, ptr %2, align 8, !tbaa !15
  %4 = call i64 @dtgtk_gradient_slider_get_type()
  %5 = call ptr @g_type_check_instance_cast(ptr noundef %3, i64 noundef %4)
  ret ptr %5
}

; Function Attrs: inlinehint nounwind uwtable
define internal i32 @DTGTK_IS_GRADIENT_SLIDER(ptr noundef %0) #8 {
  %2 = alloca ptr, align 8
  %3 = alloca ptr, align 8
  %4 = alloca i64, align 8
  %5 = alloca i32, align 4
  %6 = alloca i32, align 4
  store ptr %0, ptr %2, align 8, !tbaa !15
  call void @llvm.lifetime.start.p0(i64 8, ptr %3) #11
  %7 = load ptr, ptr %2, align 8, !tbaa !15
  store ptr %7, ptr %3, align 8, !tbaa !205
  call void @llvm.lifetime.start.p0(i64 8, ptr %4) #11
  %8 = call i64 @dtgtk_gradient_slider_get_type()
  store i64 %8, ptr %4, align 8, !tbaa !11
  call void @llvm.lifetime.start.p0(i64 4, ptr %5) #11
  %9 = load ptr, ptr %3, align 8, !tbaa !205
  %10 = icmp ne ptr %9, null
  br i1 %10, label %12, label %11

11:                                               ; preds = %1
  store i32 0, ptr %5, align 4, !tbaa !13
  br label %31

12:                                               ; preds = %1
  %13 = load ptr, ptr %3, align 8, !tbaa !205
  %14 = getelementptr inbounds nuw %struct._GTypeInstance, ptr %13, i32 0, i32 0
  %15 = load ptr, ptr %14, align 8, !tbaa !207
  %16 = icmp ne ptr %15, null
  br i1 %16, label %17, label %26

17:                                               ; preds = %12
  %18 = load ptr, ptr %3, align 8, !tbaa !205
  %19 = getelementptr inbounds nuw %struct._GTypeInstance, ptr %18, i32 0, i32 0
  %20 = load ptr, ptr %19, align 8, !tbaa !207
  %21 = getelementptr inbounds nuw %struct._GTypeClass, ptr %20, i32 0, i32 0
  %22 = load i64, ptr %21, align 8, !tbaa !121
  %23 = load i64, ptr %4, align 8, !tbaa !11
  %24 = icmp eq i64 %22, %23
  br i1 %24, label %25, label %26

25:                                               ; preds = %17
  store i32 1, ptr %5, align 4, !tbaa !13
  br label %30

26:                                               ; preds = %17, %12
  %27 = load ptr, ptr %3, align 8, !tbaa !205
  %28 = load i64, ptr %4, align 8, !tbaa !11
  %29 = call i32 @g_type_check_instance_is_a(ptr noundef %27, i64 noundef %28) #14
  store i32 %29, ptr %5, align 4, !tbaa !13
  br label %30

30:                                               ; preds = %26, %25
  br label %31

31:                                               ; preds = %30, %11
  %32 = load i32, ptr %5, align 4, !tbaa !13
  store i32 %32, ptr %6, align 4, !tbaa !13
  call void @llvm.lifetime.end.p0(i64 4, ptr %5) #11
  call void @llvm.lifetime.end.p0(i64 8, ptr %4) #11
  call void @llvm.lifetime.end.p0(i64 8, ptr %3) #11
  %33 = load i32, ptr %6, align 4, !tbaa !13
  ret i32 %33
}

; Function Attrs: nounwind uwtable
define internal void @_gradient_slider_get_preferred_width(ptr noundef %0, ptr noundef %1, ptr noundef %2) #0 {
  %4 = alloca ptr, align 8
  %5 = alloca ptr, align 8
  %6 = alloca ptr, align 8
  %7 = alloca i32, align 4
  %8 = alloca i32, align 4
  %9 = alloca ptr, align 8
  %10 = alloca i32, align 4
  %11 = alloca %struct._GtkBorder, align 2
  %12 = alloca %struct._GtkBorder, align 2
  %13 = alloca %struct._GtkBorder, align 2
  %14 = alloca i32, align 4
  store ptr %0, ptr %4, align 8, !tbaa !54
  store ptr %1, ptr %5, align 8, !tbaa !100
  store ptr %2, ptr %6, align 8, !tbaa !100
  br label %15

15:                                               ; preds = %3
  call void @llvm.lifetime.start.p0(i64 4, ptr %7) #11
  %16 = load ptr, ptr %4, align 8, !tbaa !54
  %17 = call i32 @DTGTK_IS_GRADIENT_SLIDER(ptr noundef %16)
  %18 = icmp ne i32 %17, 0
  br i1 %18, label %19, label %20

19:                                               ; preds = %15
  store i32 1, ptr %7, align 4, !tbaa !13
  br label %21

20:                                               ; preds = %15
  store i32 0, ptr %7, align 4, !tbaa !13
  br label %21

21:                                               ; preds = %20, %19
  %22 = load i32, ptr %7, align 4, !tbaa !13
  store i32 %22, ptr %8, align 4, !tbaa !13
  call void @llvm.lifetime.end.p0(i64 4, ptr %7) #11
  %23 = load i32, ptr %8, align 4, !tbaa !13
  %24 = sext i32 %23 to i64
  %25 = call i64 @llvm.expect.i64(i64 %24, i64 1)
  %26 = icmp ne i64 %25, 0
  br i1 %26, label %27, label %28

27:                                               ; preds = %21
  br label %29

28:                                               ; preds = %21
  call void @g_return_if_fail_warning(ptr noundef null, ptr noundef @__func__._gradient_slider_get_preferred_width, ptr noundef @.str.9)
  br label %98

29:                                               ; preds = %27
  br label %30

30:                                               ; preds = %29
  call void @llvm.lifetime.start.p0(i64 8, ptr %9) #11
  %31 = load ptr, ptr %4, align 8, !tbaa !54
  %32 = call ptr @gtk_widget_get_style_context(ptr noundef %31)
  store ptr %32, ptr %9, align 8, !tbaa !122
  call void @llvm.lifetime.start.p0(i64 4, ptr %10) #11
  %33 = load ptr, ptr %4, align 8, !tbaa !54
  %34 = call i32 @gtk_widget_get_state_flags(ptr noundef %33)
  store i32 %34, ptr %10, align 4, !tbaa !13
  call void @llvm.lifetime.start.p0(i64 8, ptr %11) #11
  call void @llvm.lifetime.start.p0(i64 8, ptr %12) #11
  call void @llvm.lifetime.start.p0(i64 8, ptr %13) #11
  call void @llvm.lifetime.start.p0(i64 4, ptr %14) #11
  %35 = load ptr, ptr %9, align 8, !tbaa !122
  %36 = load i32, ptr %10, align 4, !tbaa !13
  call void (ptr, i32, ...) @gtk_style_context_get(ptr noundef %35, i32 noundef %36, ptr noundef @.str.10, ptr noundef %14, ptr noundef null)
  %37 = load ptr, ptr %9, align 8, !tbaa !122
  %38 = load i32, ptr %10, align 4, !tbaa !13
  call void @gtk_style_context_get_margin(ptr noundef %37, i32 noundef %38, ptr noundef %11)
  %39 = load ptr, ptr %9, align 8, !tbaa !122
  %40 = load i32, ptr %10, align 4, !tbaa !13
  call void @gtk_style_context_get_border(ptr noundef %39, i32 noundef %40, ptr noundef %12)
  %41 = load ptr, ptr %9, align 8, !tbaa !122
  %42 = load i32, ptr %10, align 4, !tbaa !13
  call void @gtk_style_context_get_padding(ptr noundef %41, i32 noundef %42, ptr noundef %13)
  %43 = load i32, ptr %14, align 4, !tbaa !13
  %44 = getelementptr inbounds nuw %struct._GtkBorder, ptr %13, i32 0, i32 0
  %45 = load i16, ptr %44, align 2, !tbaa !128
  %46 = sext i16 %45 to i32
  %47 = add nsw i32 %43, %46
  %48 = getelementptr inbounds nuw %struct._GtkBorder, ptr %13, i32 0, i32 1
  %49 = load i16, ptr %48, align 2, !tbaa !129
  %50 = sext i16 %49 to i32
  %51 = add nsw i32 %47, %50
  %52 = getelementptr inbounds nuw %struct._GtkBorder, ptr %12, i32 0, i32 0
  %53 = load i16, ptr %52, align 2, !tbaa !128
  %54 = sext i16 %53 to i32
  %55 = add nsw i32 %51, %54
  %56 = getelementptr inbounds nuw %struct._GtkBorder, ptr %12, i32 0, i32 1
  %57 = load i16, ptr %56, align 2, !tbaa !129
  %58 = sext i16 %57 to i32
  %59 = add nsw i32 %55, %58
  %60 = getelementptr inbounds nuw %struct._GtkBorder, ptr %11, i32 0, i32 0
  %61 = load i16, ptr %60, align 2, !tbaa !128
  %62 = sext i16 %61 to i32
  %63 = add nsw i32 %59, %62
  %64 = getelementptr inbounds nuw %struct._GtkBorder, ptr %11, i32 0, i32 1
  %65 = load i16, ptr %64, align 2, !tbaa !129
  %66 = sext i16 %65 to i32
  %67 = add nsw i32 %63, %66
  %68 = load ptr, ptr %6, align 8, !tbaa !100
  store i32 %67, ptr %68, align 4, !tbaa !13
  %69 = load ptr, ptr %5, align 8, !tbaa !100
  store i32 %67, ptr %69, align 4, !tbaa !13
  %70 = getelementptr inbounds nuw %struct._GtkBorder, ptr %13, i32 0, i32 0
  %71 = load i16, ptr %70, align 2, !tbaa !128
  %72 = sext i16 %71 to i32
  %73 = getelementptr inbounds nuw %struct._GtkBorder, ptr %12, i32 0, i32 0
  %74 = load i16, ptr %73, align 2, !tbaa !128
  %75 = sext i16 %74 to i32
  %76 = add nsw i32 %72, %75
  %77 = getelementptr inbounds nuw %struct._GtkBorder, ptr %11, i32 0, i32 0
  %78 = load i16, ptr %77, align 2, !tbaa !128
  %79 = sext i16 %78 to i32
  %80 = add nsw i32 %76, %79
  %81 = load ptr, ptr %4, align 8, !tbaa !54
  %82 = call ptr @DTGTK_GRADIENT_SLIDER(ptr noundef %81)
  %83 = getelementptr inbounds nuw %struct._GtkDarktableGradientSlider, ptr %82, i32 0, i32 11
  store i32 %80, ptr %83, align 8, !tbaa !48
  %84 = getelementptr inbounds nuw %struct._GtkBorder, ptr %13, i32 0, i32 1
  %85 = load i16, ptr %84, align 2, !tbaa !129
  %86 = sext i16 %85 to i32
  %87 = getelementptr inbounds nuw %struct._GtkBorder, ptr %12, i32 0, i32 1
  %88 = load i16, ptr %87, align 2, !tbaa !129
  %89 = sext i16 %88 to i32
  %90 = add nsw i32 %86, %89
  %91 = getelementptr inbounds nuw %struct._GtkBorder, ptr %11, i32 0, i32 1
  %92 = load i16, ptr %91, align 2, !tbaa !129
  %93 = sext i16 %92 to i32
  %94 = add nsw i32 %90, %93
  %95 = load ptr, ptr %4, align 8, !tbaa !54
  %96 = call ptr @DTGTK_GRADIENT_SLIDER(ptr noundef %95)
  %97 = getelementptr inbounds nuw %struct._GtkDarktableGradientSlider, ptr %96, i32 0, i32 12
  store i32 %94, ptr %97, align 4, !tbaa !47
  call void @llvm.lifetime.end.p0(i64 4, ptr %14) #11
  call void @llvm.lifetime.end.p0(i64 8, ptr %13) #11
  call void @llvm.lifetime.end.p0(i64 8, ptr %12) #11
  call void @llvm.lifetime.end.p0(i64 8, ptr %11) #11
  call void @llvm.lifetime.end.p0(i64 4, ptr %10) #11
  call void @llvm.lifetime.end.p0(i64 8, ptr %9) #11
  br label %98

98:                                               ; preds = %30, %28
  ret void
}