; Function Attrs: nounwind uwtable
define internal void @_gradient_slider_get_preferred_width(ptr noundef %0, ptr noundef writeonly captures(none) %1, ptr noundef writeonly captures(none) %2) #0 {
  %4 = alloca %struct._GtkBorder, align 2
  %5 = alloca %struct._GtkBorder, align 2
  %6 = alloca %struct._GtkBorder, align 2
  %7 = alloca i32, align 4
  %8 = load atomic i64, ptr @_gradient_slider_get_type.static_g_define_type_id seq_cst, align 8
  %.not.i.i.i = icmp eq i64 %8, 0
  br i1 %.not.i.i.i, label %9, label %dtgtk_gradient_slider_get_type.exit.i

9:                                                ; preds = %3
  %10 = tail call i32 @g_once_init_enter(ptr noundef nonnull @_gradient_slider_get_type.static_g_define_type_id) #14
  %.not4.i.i.i = icmp eq i32 %10, 0
  br i1 %.not4.i.i.i, label %dtgtk_gradient_slider_get_type.exit.i, label %11

11:                                               ; preds = %9
  %12 = tail call fastcc i64 @_gradient_slider_get_type_once()
  tail call void @g_once_init_leave(ptr noundef nonnull @_gradient_slider_get_type.static_g_define_type_id, i64 noundef %12) #14
  br label %dtgtk_gradient_slider_get_type.exit.i

dtgtk_gradient_slider_get_type.exit.i:            ; preds = %11, %9, %3
  %13 = load i64, ptr @_gradient_slider_get_type.static_g_define_type_id, align 8, !tbaa !6
  %.not.i = icmp eq ptr %0, null
  br i1 %.not.i, label %DTGTK_IS_GRADIENT_SLIDER.exit.thread, label %14

14:                                               ; preds = %dtgtk_gradient_slider_get_type.exit.i
  %15 = load ptr, ptr %0, align 8, !tbaa !113
  %.not10.i = icmp eq ptr %15, null
  br i1 %.not10.i, label %DTGTK_IS_GRADIENT_SLIDER.exit, label %16

16:                                               ; preds = %14
  %17 = load i64, ptr %15, align 8, !tbaa !107
  %18 = icmp eq i64 %17, %13
  br i1 %18, label %DTGTK_IS_GRADIENT_SLIDER.exit.thread26, label %DTGTK_IS_GRADIENT_SLIDER.exit

DTGTK_IS_GRADIENT_SLIDER.exit:                    ; preds = %14, %16
  %19 = tail call i32 @g_type_check_instance_is_a(ptr noundef nonnull readonly %0, i64 noundef %13) #17
  %.not = icmp eq i32 %19, 0
  br i1 %.not, label %DTGTK_IS_GRADIENT_SLIDER.exit.thread, label %DTGTK_IS_GRADIENT_SLIDER.exit.thread26, !prof !114

DTGTK_IS_GRADIENT_SLIDER.exit.thread:             ; preds = %dtgtk_gradient_slider_get_type.exit.i, %DTGTK_IS_GRADIENT_SLIDER.exit
  tail call void @g_return_if_fail_warning(ptr noundef null, ptr noundef nonnull @__func__._gradient_slider_get_preferred_width, ptr noundef nonnull @.str.9) #14
  br label %69

DTGTK_IS_GRADIENT_SLIDER.exit.thread26:           ; preds = %16, %DTGTK_IS_GRADIENT_SLIDER.exit
  %20 = tail call ptr @gtk_widget_get_style_context(ptr noundef nonnull %0) #14
  %21 = tail call i32 @gtk_widget_get_state_flags(ptr noundef nonnull %0) #14
  call void @llvm.lifetime.start.p0(i64 8, ptr nonnull %4) #14
  call void @llvm.lifetime.start.p0(i64 8, ptr nonnull %5) #14
  call void @llvm.lifetime.start.p0(i64 8, ptr nonnull %6) #14
  call void @llvm.lifetime.start.p0(i64 4, ptr nonnull %7) #14
  call void (ptr, i32, ...) @gtk_style_context_get(ptr noundef %20, i32 noundef %21, ptr noundef nonnull @.str.10, ptr noundef nonnull %7, ptr noundef null) #14
  call void @gtk_style_context_get_margin(ptr noundef %20, i32 noundef %21, ptr noundef nonnull %4) #14
  call void @gtk_style_context_get_border(ptr noundef %20, i32 noundef %21, ptr noundef nonnull %5) #14
  call void @gtk_style_context_get_padding(ptr noundef %20, i32 noundef %21, ptr noundef nonnull %6) #14
  %22 = load i32, ptr %7, align 4, !tbaa !44
  %23 = load i16, ptr %6, align 2, !tbaa !115
  %24 = sext i16 %23 to i32
  %25 = getelementptr inbounds nuw i8, ptr %6, i64 2
  %26 = load i16, ptr %25, align 2, !tbaa !116
  %27 = sext i16 %26 to i32
  %28 = load i16, ptr %5, align 2, !tbaa !115
  %29 = sext i16 %28 to i32
  %30 = getelementptr inbounds nuw i8, ptr %5, i64 2
  %31 = load i16, ptr %30, align 2, !tbaa !116
  %32 = sext i16 %31 to i32
  %33 = load i16, ptr %4, align 2, !tbaa !115
  %34 = sext i16 %33 to i32
  %35 = getelementptr inbounds nuw i8, ptr %4, i64 2
  %36 = load i16, ptr %35, align 2, !tbaa !116
  %37 = sext i16 %36 to i32
  %38 = add nsw i32 %29, %24
  %39 = add i32 %38, %22
  %40 = add i32 %39, %27
  %41 = add nsw i32 %40, %32
  %42 = add nsw i32 %41, %34
  %43 = add nsw i32 %42, %37
  store i32 %43, ptr %2, align 4, !tbaa !44
  store i32 %43, ptr %1, align 4, !tbaa !44
  %44 = add nsw i32 %38, %34
  %45 = load atomic i64, ptr @_gradient_slider_get_type.static_g_define_type_id seq_cst, align 8
  %.not.i.i.i17 = icmp eq i64 %45, 0
  br i1 %.not.i.i.i17, label %46, label %DTGTK_GRADIENT_SLIDER.exit

46:                                               ; preds = %DTGTK_IS_GRADIENT_SLIDER.exit.thread26
  %47 = call i32 @g_once_init_enter(ptr noundef nonnull @_gradient_slider_get_type.static_g_define_type_id) #14
  %.not4.i.i.i19 = icmp eq i32 %47, 0
  br i1 %.not4.i.i.i19, label %DTGTK_GRADIENT_SLIDER.exit, label %48

48:                                               ; preds = %46
  %49 = call fastcc i64 @_gradient_slider_get_type_once()
  call void @g_once_init_leave(ptr noundef nonnull @_gradient_slider_get_type.static_g_define_type_id, i64 noundef %49) #14
  br label %DTGTK_GRADIENT_SLIDER.exit

DTGTK_GRADIENT_SLIDER.exit:                       ; preds = %DTGTK_IS_GRADIENT_SLIDER.exit.thread26, %46, %48
  %50 = load i64, ptr @_gradient_slider_get_type.static_g_define_type_id, align 8, !tbaa !6
  %51 = call ptr @g_type_check_instance_cast(ptr noundef nonnull %0, i64 noundef %50) #14
  %52 = getelementptr inbounds nuw i8, ptr %51, i64 304
  store i32 %44, ptr %52, align 8, !tbaa !40
  %53 = load i16, ptr %25, align 2, !tbaa !116
  %54 = sext i16 %53 to i32
  %55 = load i16, ptr %30, align 2, !tbaa !116
  %56 = sext i16 %55 to i32
  %57 = add nsw i32 %56, %54
  %58 = load i16, ptr %35, align 2, !tbaa !116
  %59 = sext i16 %58 to i32
  %60 = add nsw i32 %57, %59
  %61 = load atomic i64, ptr @_gradient_slider_get_type.static_g_define_type_id seq_cst, align 8
  %.not.i.i.i20 = icmp eq i64 %61, 0
  br i1 %.not.i.i.i20, label %62, label %DTGTK_GRADIENT_SLIDER.exit23

62:                                               ; preds = %DTGTK_GRADIENT_SLIDER.exit
  %63 = call i32 @g_once_init_enter(ptr noundef nonnull @_gradient_slider_get_type.static_g_define_type_id) #14
  %.not4.i.i.i22 = icmp eq i32 %63, 0
  br i1 %.not4.i.i.i22, label %DTGTK_GRADIENT_SLIDER.exit23, label %64

64:                                               ; preds = %62
  %65 = call fastcc i64 @_gradient_slider_get_type_once()
  call void @g_once_init_leave(ptr noundef nonnull @_gradient_slider_get_type.static_g_define_type_id, i64 noundef %65) #14
  br label %DTGTK_GRADIENT_SLIDER.exit23

DTGTK_GRADIENT_SLIDER.exit23:                     ; preds = %DTGTK_GRADIENT_SLIDER.exit, %62, %64
  %66 = load i64, ptr @_gradient_slider_get_type.static_g_define_type_id, align 8, !tbaa !6
  %67 = call ptr @g_type_check_instance_cast(ptr noundef nonnull %0, i64 noundef %66) #14
  %68 = getelementptr inbounds nuw i8, ptr %67, i64 308
  store i32 %60, ptr %68, align 4, !tbaa !39
  call void @llvm.lifetime.end.p0(i64 4, ptr nonnull %7) #14
  call void @llvm.lifetime.end.p0(i64 8, ptr nonnull %6) #14
  call void @llvm.lifetime.end.p0(i64 8, ptr nonnull %5) #14
  call void @llvm.lifetime.end.p0(i64 8, ptr nonnull %4) #14
  br label %69

69:                                               ; preds = %DTGTK_GRADIENT_SLIDER.exit23, %DTGTK_IS_GRADIENT_SLIDER.exit.thread
  ret void
}